; Function Attrs: mustprogress uwtable
define noundef zeroext i1 @_ZN8RichMesheqERK13RichParameter(ptr noundef nonnull align 8 dereferenceable(64) %0, ptr noundef nonnull align 8 dereferenceable(56) %1) unnamed_addr #2 align 2 {
  %3 = tail call ptr @__dynamic_cast(ptr nonnull %1, ptr nonnull @_ZTI13RichParameter, ptr nonnull @_ZTI8RichMesh, i64 0) #9
  %.not = icmp eq ptr %3, null
  br i1 %.not, label %20, label %4

4:                                                ; preds = %2
  %5 = getelementptr inbounds i8, ptr %0, i64 8
  %6 = tail call noundef nonnull align 8 dereferenceable(8) ptr @_ZNK13RichParameter4nameEv(ptr noundef nonnull align 8 dereferenceable(56) %1)
  %7 = tail call noundef zeroext i1 @_ZeqRK7QStringS1_(ptr noundef nonnull align 8 dereferenceable(8) %5, ptr noundef nonnull align 8 dereferenceable(8) %6) #9
  br i1 %7, label %8, label %20

8:                                                ; preds = %4
  %9 = tail call noundef nonnull align 8 dereferenceable(8) ptr @_ZNK13RichParameter5valueEv(ptr noundef nonnull align 8 dereferenceable(56) %0)
  %10 = load ptr, ptr %9, align 8
  %11 = getelementptr inbounds i8, ptr %10, i64 24
  %12 = load ptr, ptr %11, align 8
  %13 = tail call noundef i32 %12(ptr noundef nonnull align 8 dereferenceable(8) %9)
  %14 = tail call noundef nonnull align 8 dereferenceable(8) ptr @_ZNK13RichParameter5valueEv(ptr noundef nonnull align 8 dereferenceable(56) %1)
  %15 = load ptr, ptr %14, align 8
  %16 = getelementptr inbounds i8, ptr %15, i64 24
  %17 = load ptr, ptr %16, align 8
  %18 = tail call noundef i32 %17(ptr noundef nonnull align 8 dereferenceable(8) %14)
  %19 = icmp eq i32 %13, %18
  br label %20

20:                                               ; preds = %8, %4, %2
  %21 = phi i1 [ false, %4 ], [ false, %2 ], [ %19, %8 ]
  ret i1 %21
}